
double_press_detection.elf:     file format elf32-avr

Sections:
Idx Name          Size      VMA       LMA       File off  Algn
  0 .data         00000000  00800100  00800100  00000140  2**0
                  CONTENTS, ALLOC, LOAD, DATA
  1 .text         000000ec  00000000  00000000  00000054  2**1
                  CONTENTS, ALLOC, LOAD, READONLY, CODE
  2 .comment      00000030  00000000  00000000  00000140  2**0
                  CONTENTS, READONLY
  3 .note.gnu.avr.deviceinfo 00000040  00000000  00000000  00000170  2**2
                  CONTENTS, READONLY
  4 .debug_aranges 00000020  00000000  00000000  000001b0  2**0
                  CONTENTS, READONLY, DEBUGGING
  5 .debug_info   00000766  00000000  00000000  000001d0  2**0
                  CONTENTS, READONLY, DEBUGGING
  6 .debug_abbrev 0000068d  00000000  00000000  00000936  2**0
                  CONTENTS, READONLY, DEBUGGING
  7 .debug_line   000002b9  00000000  00000000  00000fc3  2**0
                  CONTENTS, READONLY, DEBUGGING
  8 .debug_frame  00000024  00000000  00000000  0000127c  2**2
                  CONTENTS, READONLY, DEBUGGING
  9 .debug_str    000003b6  00000000  00000000  000012a0  2**0
                  CONTENTS, READONLY, DEBUGGING
 10 .debug_loc    000000c1  00000000  00000000  00001656  2**0
                  CONTENTS, READONLY, DEBUGGING
 11 .debug_ranges 00000010  00000000  00000000  00001717  2**0
                  CONTENTS, READONLY, DEBUGGING

Disassembly of section .text:

00000000 <__vectors>:
   0:	0c 94 34 00 	jmp	0x68	; 0x68 <__ctors_end>
   4:	0c 94 3e 00 	jmp	0x7c	; 0x7c <__bad_interrupt>
   8:	0c 94 3e 00 	jmp	0x7c	; 0x7c <__bad_interrupt>
   c:	0c 94 3e 00 	jmp	0x7c	; 0x7c <__bad_interrupt>
  10:	0c 94 3e 00 	jmp	0x7c	; 0x7c <__bad_interrupt>
  14:	0c 94 3e 00 	jmp	0x7c	; 0x7c <__bad_interrupt>
  18:	0c 94 3e 00 	jmp	0x7c	; 0x7c <__bad_interrupt>
  1c:	0c 94 3e 00 	jmp	0x7c	; 0x7c <__bad_interrupt>
  20:	0c 94 3e 00 	jmp	0x7c	; 0x7c <__bad_interrupt>
  24:	0c 94 3e 00 	jmp	0x7c	; 0x7c <__bad_interrupt>
  28:	0c 94 3e 00 	jmp	0x7c	; 0x7c <__bad_interrupt>
  2c:	0c 94 3e 00 	jmp	0x7c	; 0x7c <__bad_interrupt>
  30:	0c 94 3e 00 	jmp	0x7c	; 0x7c <__bad_interrupt>
  34:	0c 94 3e 00 	jmp	0x7c	; 0x7c <__bad_interrupt>
  38:	0c 94 3e 00 	jmp	0x7c	; 0x7c <__bad_interrupt>
  3c:	0c 94 3e 00 	jmp	0x7c	; 0x7c <__bad_interrupt>
  40:	0c 94 3e 00 	jmp	0x7c	; 0x7c <__bad_interrupt>
  44:	0c 94 3e 00 	jmp	0x7c	; 0x7c <__bad_interrupt>
  48:	0c 94 3e 00 	jmp	0x7c	; 0x7c <__bad_interrupt>
  4c:	0c 94 3e 00 	jmp	0x7c	; 0x7c <__bad_interrupt>
  50:	0c 94 3e 00 	jmp	0x7c	; 0x7c <__bad_interrupt>
  54:	0c 94 3e 00 	jmp	0x7c	; 0x7c <__bad_interrupt>
  58:	0c 94 3e 00 	jmp	0x7c	; 0x7c <__bad_interrupt>
  5c:	0c 94 3e 00 	jmp	0x7c	; 0x7c <__bad_interrupt>
  60:	0c 94 3e 00 	jmp	0x7c	; 0x7c <__bad_interrupt>
  64:	0c 94 3e 00 	jmp	0x7c	; 0x7c <__bad_interrupt>

00000068 <__ctors_end>:
  68:	11 24       	eor	r1, r1
  6a:	1f be       	out	0x3f, r1	; 63
  6c:	cf ef       	ldi	r28, 0xFF	; 255
  6e:	d8 e0       	ldi	r29, 0x08	; 8
  70:	de bf       	out	0x3e, r29	; 62
  72:	cd bf       	out	0x3d, r28	; 61
  74:	0e 94 40 00 	call	0x80	; 0x80 <main>
  78:	0c 94 74 00 	jmp	0xe8	; 0xe8 <_exit>

0000007c <__bad_interrupt>:
  7c:	0c 94 00 00 	jmp	0	; 0x0 <__vectors>

00000080 <main>:

int main(void)

{
	/*configuring ports and pins*/
	DDRB &= ~(1 << DDB7); //Input configuration
  80:	84 b1       	in	r24, 0x04	; 4
  82:	8f 77       	andi	r24, 0x7F	; 127
  84:	84 b9       	out	0x04, r24	; 4
	PORTB |= (1 << SWITCH); //setting as high for pull up
  86:	85 b1       	in	r24, 0x05	; 5
  88:	80 68       	ori	r24, 0x80	; 128
  8a:	85 b9       	out	0x05, r24	; 5
	DDRB |= (1 << DDB5); //output
  8c:	84 b1       	in	r24, 0x04	; 4
  8e:	80 62       	ori	r24, 0x20	; 32
  90:	84 b9       	out	0x04, r24	; 4
	PORTB &= ~(1 << LED);//low at starting
  92:	85 b1       	in	r24, 0x05	; 5
  94:	8f 7d       	andi	r24, 0xDF	; 223
  96:	85 b9       	out	0x05, r24	; 5

	while (1)

	{

		if(IS_SWITCH_PRESSED)
  98:	1f 99       	sbic	0x03, 7	; 3
  9a:	fe cf       	rjmp	.-4      	; 0x98 <main+0x18>
	#else
		//round up by default
		__ticks_dc = (uint32_t)(ceil(fabs(__tmp)));
	#endif

	__builtin_avr_delay_cycles(__ticks_dc);
  9c:	2f ef       	ldi	r18, 0xFF	; 255
  9e:	89 ef       	ldi	r24, 0xF9	; 249
  a0:	90 e0       	ldi	r25, 0x00	; 0
  a2:	21 50       	subi	r18, 0x01	; 1
  a4:	80 40       	sbci	r24, 0x00	; 0
  a6:	90 40       	sbci	r25, 0x00	; 0
  a8:	e1 f7       	brne	.-8      	; 0xa2 <main+0x22>
  aa:	00 c0       	rjmp	.+0      	; 0xac <main+0x2c>
  ac:	00 00       	nop
		{
			_delay_ms(20);
			if(IS_SWITCH_PRESSED) //checking for first press
  ae:	1f 99       	sbic	0x03, 7	; 3
  b0:	f3 cf       	rjmp	.-26     	; 0x98 <main+0x18>
			{
				while(IS_SWITCH_PRESSED);
  b2:	1f 9b       	sbis	0x03, 7	; 3
  b4:	fe cf       	rjmp	.-4      	; 0xb2 <main+0x32>
  b6:	80 e0       	ldi	r24, 0x00	; 0
  b8:	0d c0       	rjmp	.+26     	; 0xd4 <main+0x54>
  ba:	ef e3       	ldi	r30, 0x3F	; 63
  bc:	fc e9       	ldi	r31, 0x9C	; 156
  be:	31 97       	sbiw	r30, 0x01	; 1
  c0:	f1 f7       	brne	.-4      	; 0xbe <main+0x3e>
  c2:	00 c0       	rjmp	.+0      	; 0xc4 <main+0x44>
  c4:	00 00       	nop
				uint8_t double_press_detected = 0;
				
				for(uint8_t i = 0; i < 40; i++)
				{
					_delay_ms(10);
					if(IS_SWITCH_PRESSED)
  c6:	1f 99       	sbic	0x03, 7	; 3
  c8:	04 c0       	rjmp	.+8      	; 0xd2 <main+0x52>
					{
						double_press_detected = 1;
						while(IS_SWITCH_PRESSED);
  ca:	1f 9b       	sbis	0x03, 7	; 3
  cc:	fe cf       	rjmp	.-4      	; 0xca <main+0x4a>
				for(uint8_t i = 0; i < 40; i++)
				{
					_delay_ms(10);
					if(IS_SWITCH_PRESSED)
					{
						double_press_detected = 1;
  ce:	81 e0       	ldi	r24, 0x01	; 1
  d0:	04 c0       	rjmp	.+8      	; 0xda <main+0x5a>
			if(IS_SWITCH_PRESSED) //checking for first press
			{
				while(IS_SWITCH_PRESSED);
				uint8_t double_press_detected = 0;
				
				for(uint8_t i = 0; i < 40; i++)
  d2:	8f 5f       	subi	r24, 0xFF	; 255
  d4:	88 32       	cpi	r24, 0x28	; 40
  d6:	88 f3       	brcs	.-30     	; 0xba <main+0x3a>
		{
			_delay_ms(20);
			if(IS_SWITCH_PRESSED) //checking for first press
			{
				while(IS_SWITCH_PRESSED);
				uint8_t double_press_detected = 0;
  d8:	80 e0       	ldi	r24, 0x00	; 0
						while(IS_SWITCH_PRESSED);
						break;
					}
				}
				/*checking if sswitch is pressed*/
				if(double_press_detected)
  da:	88 23       	and	r24, r24
  dc:	e9 f2       	breq	.-70     	; 0x98 <main+0x18>
				{
					PORTB ^= (1 << LED); //toggle the LED
  de:	95 b1       	in	r25, 0x05	; 5
  e0:	80 e2       	ldi	r24, 0x20	; 32
  e2:	89 27       	eor	r24, r25
  e4:	85 b9       	out	0x05, r24	; 5
  e6:	d8 cf       	rjmp	.-80     	; 0x98 <main+0x18>

000000e8 <_exit>:
  e8:	f8 94       	cli

000000ea <__stop_program>:
  ea:	ff cf       	rjmp	.-2      	; 0xea <__stop_program>
